Certificate:
    Data:
        Version: 3 (0x2)
        Serial Number:
            06:29:e4:c2:e0:54:29:1a:59:4d:88:12:cb:ab:0d:e6
        Signature Algorithm: sha256WithRSAEncryption
        Issuer: CN=Easy-RSA CA
        Validity
            Not Before: Dec  3 10:57:41 2021 GMT
            Not After : Nov 17 10:57:41 2024 GMT
        Subject: CN=ovpn-server
        Subject Public Key Info:
            Public Key Algorithm: rsaEncryption
                RSA Public-Key: (2048 bit)
                Modulus:
                    00:a5:4c:d1:84:b0:c7:f5:f8:97:36:87:2f:f4:0d:
                    30:39:69:22:6b:2a:03:70:c8:9e:02:8a:04:f4:a5:
                    ea:73:0a:41:07:96:92:5d:f5:16:84:86:c5:d2:9c:
                    cc:e8:b6:0e:60:9b:88:1a:25:7d:15:73:d0:36:38:
                    27:2b:f3:3e:54:d4:ea:b8:b7:d3:25:25:78:7e:81:
                    62:65:e9:3d:de:c2:f4:1f:c1:b6:18:12:63:e9:d6:
                    aa:48:00:f9:ed:ef:95:d5:01:51:21:47:8a:a7:cf:
                    48:df:d4:d5:98:66:73:0b:6d:56:7e:84:59:db:61:
                    84:c8:a0:ab:30:e8:a5:fe:bb:41:6a:70:7c:ae:bd:
                    c0:2e:5b:41:84:4e:bd:9a:df:28:11:c7:27:71:f0:
                    73:99:cf:46:1e:5a:d9:84:d8:6f:d3:80:52:83:df:
                    e0:9c:59:3c:b2:6a:73:c1:96:55:a1:be:77:36:01:
                    47:42:d1:e6:07:1e:e2:96:1b:e7:ca:d5:1d:fd:98:
                    8a:30:e2:08:af:4e:58:58:4d:e7:46:bd:1a:81:09:
                    60:67:07:ed:f6:7b:0b:0c:f9:87:4d:11:e2:65:74:
                    5c:76:43:66:df:d2:24:29:6f:65:22:06:af:63:9a:
                    de:33:37:f0:5d:7e:22:a8:0e:10:28:2a:b1:4f:0f:
                    f2:45
                Exponent: 65537 (0x10001)
        X509v3 extensions:
            X509v3 Basic Constraints: 
                CA:FALSE
            X509v3 Subject Key Identifier: 
                29:8E:3F:49:01:65:C6:C2:D4:96:6D:0B:9E:8C:7B:EC:82:C5:1E:13
            X509v3 Authority Key Identifier: 
                keyid:78:98:8A:4B:C0:D8:B0:CC:AE:A9:40:1E:6F:57:34:A3:2D:AF:97:50
                DirName:/CN=Easy-RSA CA
                serial:4D:29:71:37:C7:96:DE:65:1F:5C:5F:76:B7:2B:0F:BD:4B:09:61:FD

            X509v3 Extended Key Usage: 
                TLS Web Server Authentication
            X509v3 Key Usage: 
                Digital Signature, Key Encipherment
            X509v3 Subject Alternative Name: 
                DNS:ovpn-server
    Signature Algorithm: sha256WithRSAEncryption
         1c:56:54:88:94:c8:c5:e6:a8:fb:78:3f:6b:63:de:ac:42:36:
         8d:9d:40:be:83:45:fa:4b:1c:fe:62:99:4f:ed:97:41:9e:7e:
         d5:f2:ec:bd:de:4f:f4:99:6e:5b:21:f7:ac:9d:f4:0b:88:7e:
         f8:30:4a:e4:cb:56:7f:89:06:ab:e8:05:0b:a6:19:7e:69:31:
         cd:cb:ef:66:ee:e1:32:49:f6:d8:ac:db:79:d6:8b:55:9c:0f:
         fe:30:f9:21:b1:ce:ce:e6:ea:41:44:9a:f9:e6:74:52:75:53:
         66:56:2d:1e:10:3f:e2:aa:1f:60:3f:e6:cf:01:6a:1f:86:2a:
         b7:21:4a:19:cb:48:df:7f:2a:21:57:4a:d2:b4:f0:40:8b:7a:
         1d:d1:14:b9:99:e9:b5:b9:6e:77:8b:9e:6f:fd:a5:54:ac:9a:
         d0:fc:cb:db:af:43:c8:af:67:2e:7f:40:aa:3f:86:4d:8b:f7:
         61:76:e7:78:a0:0e:3d:4a:ec:d1:d5:28:f0:23:77:4f:57:22:
         f4:ee:39:4b:3a:08:60:fc:52:af:65:0e:ed:14:b6:51:f1:4b:
         8c:98:2b:58:e0:4e:c4:bd:3b:2d:64:7e:d9:b6:de:ec:47:41:
         43:2f:84:24:f8:05:2b:9a:d8:f8:dd:99:6a:af:90:06:8f:13:
         8c:a1:08:6b
-----BEGIN CERTIFICATE-----
MIIDcTCCAlmgAwIBAgIQBinkwuBUKRpZTYgSy6sN5jANBgkqhkiG9w0BAQsFADAW
MRQwEgYDVQQDDAtFYXN5LVJTQSBDQTAeFw0yMTEyMDMxMDU3NDFaFw0yNDExMTcx
MDU3NDFaMBYxFDASBgNVBAMMC292cG4tc2VydmVyMIIBIjANBgkqhkiG9w0BAQEF
AAOCAQ8AMIIBCgKCAQEApUzRhLDH9fiXNocv9A0wOWkiayoDcMieAooE9KXqcwpB
B5aSXfUWhIbF0pzM6LYOYJuIGiV9FXPQNjgnK/M+VNTquLfTJSV4foFiZek93sL0
H8G2GBJj6daqSAD57e+V1QFRIUeKp89I39TVmGZzC21WfoRZ22GEyKCrMOil/rtB
anB8rr3ALltBhE69mt8oEccncfBzmc9GHlrZhNhv04BSg9/gnFk8smpzwZZVob53
NgFHQtHmBx7ilhvnytUd/ZiKMOIIr05YWE3nRr0agQlgZwft9nsLDPmHTRHiZXRc
dkNm39IkKW9lIgavY5reMzfwXX4iqA4QKCqxTw/yRQIDAQABo4G6MIG3MAkGA1Ud
EwQCMAAwHQYDVR0OBBYEFCmOP0kBZcbC1JZtC56Me+yCxR4TMFEGA1UdIwRKMEiA
FHiYikvA2LDMrqlAHm9XNKMtr5dQoRqkGDAWMRQwEgYDVQQDDAtFYXN5LVJTQSBD
QYIUTSlxN8eW3mUfXF92tysPvUsJYf0wEwYDVR0lBAwwCgYIKwYBBQUHAwEwCwYD
VR0PBAQDAgWgMBYGA1UdEQQPMA2CC292cG4tc2VydmVyMA0GCSqGSIb3DQEBCwUA
A4IBAQAcVlSIlMjF5qj7eD9rY96sQjaNnUC+g0X6Sxz+YplP7ZdBnn7V8uy93k/0
mW5bIfesnfQLiH74MErky1Z/iQar6AULphl+aTHNy+9m7uEySfbYrNt51otVnA/+
MPkhsc7O5upBRJr55nRSdVNmVi0eED/iqh9gP+bPAWofhiq3IUoZy0jffyohV0rS
tPBAi3od0RS5mem1uW53i55v/aVUrJrQ/Mvbr0PIr2cuf0CqP4ZNi/dhdud4oA49
SuzR1SjwI3dPVyL07jlLOghg/FKvZQ7tFLZR8UuMmCtY4E7EvTstZH7Ztt7sR0FD
L4Qk+AUrmtj43Zlqr5AGjxOMoQhr
-----END CERTIFICATE-----
